; Function Attrs: mustprogress uwtable
define hidden void @_ZN4cvc58internal11NodeBuildercvNS0_12NodeTemplateILb1EEEEv(ptr noalias nocapture writeonly sret(%"class.cvc5::internal::NodeTemplate") align 8 %agg.result, ptr noundef nonnull align 8 dereferenceable(116) %this) local_unnamed_addr #3 align 2 personality ptr @__gxx_personality_v0 {
entry:
  tail call void @llvm.experimental.noalias.scope.decl(metadata !19)
  %call.i = tail call noundef ptr @_ZN4cvc58internal11NodeBuilder11constructNVEv(ptr noundef nonnull align 8 dereferenceable(116) %this), !noalias !19
  store ptr %call.i, ptr %agg.result, align 8, !alias.scope !19
  %bf.load.i.i.i = load i64, ptr %call.i, align 8, !noalias !19
  %bf.lshr.i.i.i = lshr i64 %bf.load.i.i.i, 40
  %0 = trunc i64 %bf.lshr.i.i.i to i32
  %bf.cast.i.i.i = and i32 %0, 1048575
  %cmp.i.i.i = icmp ult i32 %bf.cast.i.i.i, 1048574
  br i1 %cmp.i.i.i, label %if.then.i.i.i, label %if.else.i.i.i

if.then.i.i.i:                                    ; preds = %entry
  %bf.value.i.i.i = add i64 %bf.load.i.i.i, 1099511627776
  %bf.shl.i.i.i = and i64 %bf.value.i.i.i, 1152920405095219200
  %bf.clear7.i.i.i = and i64 %bf.load.i.i.i, -1152920405095219201
  %bf.set.i.i.i = or disjoint i64 %bf.shl.i.i.i, %bf.clear7.i.i.i
  store i64 %bf.set.i.i.i, ptr %call.i, align 8, !noalias !19
  br label %_ZN4cvc58internal11NodeBuilder13constructNodeEv.exit

if.else.i.i.i:                                    ; preds = %entry
  %cmp12.i.i.i = icmp eq i32 %bf.cast.i.i.i, 1048574
  br i1 %cmp12.i.i.i, label %if.then13.i.i.i, label %_ZN4cvc58internal11NodeBuilder13constructNodeEv.exit

if.then13.i.i.i:                                  ; preds = %if.else.i.i.i
  %bf.set23.i.i.i = or i64 %bf.load.i.i.i, 1152920405095219200
  store i64 %bf.set23.i.i.i, ptr %call.i, align 8, !noalias !19
  tail call void @_ZN4cvc58internal4expr9NodeValue20markRefCountMaxedOutEv(ptr noundef nonnull align 8 dereferenceable(16) %call.i), !noalias !19
  br label %_ZN4cvc58internal11NodeBuilder13constructNodeEv.exit

_ZN4cvc58internal11NodeBuilder13constructNodeEv.exit: ; preds = %if.then.i.i.i, %if.else.i.i.i, %if.then13.i.i.i
  ret void
}